(dp0
S'train_acc'
p1
(lp2
cnumpy.core.multiarray
scalar
p3
(cnumpy
dtype
p4
(S'f4'
p5
I0
I1
tp6
Rp7
(I3
S'<'
p8
NNNI-1
I-1
I0
tp9
bS'\xab\xaa*>'
p10
tp11
Rp12
ag3
(g7
S'\xab\xaa*>'
p13
tp14
Rp15
ag3
(g7
S'\xab\xaa*>'
p16
tp17
Rp18
asS'test_acc'
p19
(lp20
g3
(g7
S'\x00\x00\x00\x00'
p21
tp22
Rp23
ag3
(g7
S'\x00\x00\x00\x00'
p24
tp25
Rp26
ag3
(g7
S'\x00\x00\x00\x00'
p27
tp28
Rp29
asS'test_loss'
p30
(lp31
g3
(g7
S'\xe17\xf5?'
p32
tp33
Rp34
ag3
(g7
S'\xe17\xf5?'
p35
tp36
Rp37
ag3
(g7
S'\xe17\xf5?'
p38
tp39
Rp40
asS'train_loss'
p41
(lp42
g3
(g7
S'\xa9G/@'
p43
tp44
Rp45
ag3
(g7
S'\xa9G/@'
p46
tp47
Rp48
ag3
(g7
S'\xa9G/@'
p49
tp50
Rp51
as.