(dp0
S'train_acc'
p1
(lp2
cnumpy.core.multiarray
scalar
p3
(cnumpy
dtype
p4
(S'f4'
p5
I0
I1
tp6
Rp7
(I3
S'<'
p8
NNNI-1
I-1
I0
tp9
bS'\x00\x00\x00\x00'
p10
tp11
Rp12
asS'test_acc'
p13
(lp14
g3
(g7
S'\xab\xaa\xaa>'
p15
tp16
Rp17
asS'test_loss'
p18
(lp19
g3
(g7
S'\xbeg\xf2?'
p20
tp21
Rp22
asS'train_loss'
p23
(lp24
g3
(g7
S'\xb3\xecT@'
p25
tp26
Rp27
as.