(dp0
S'train_acc'
p1
(lp2
cnumpy.core.multiarray
scalar
p3
(cnumpy
dtype
p4
(S'f4'
p5
I0
I1
tp6
Rp7
(I3
S'<'
p8
NNNI-1
I-1
I0
tp9
bS'\x12wD?'
p10
tp11
Rp12
ag3
(g7
S'\xc4\x1dq?'
p13
tp14
Rp15
ag3
(g7
S'\xd0\x17t?'
p16
tp17
Rp18
ag3
(g7
S'\xdc\x11w?'
p19
tp20
Rp21
ag3
(g7
S'\xf4\x05}?'
p22
tp23
Rp24
ag3
(g7
S'\xf4\x05}?'
p25
tp26
Rp27
ag3
(g7
S'\xf4\x05}?'
p28
tp29
Rp30
ag3
(g7
S'\xf4\x05}?'
p31
tp32
Rp33
ag3
(g7
S'\xf4\x05}?'
p34
tp35
Rp36
ag3
(g7
S'\xf4\x05}?'
p37
tp38
Rp39
ag3
(g7
S'\xf4\x05}?'
p40
tp41
Rp42
ag3
(g7
S'\xf4\x05}?'
p43
tp44
Rp45
ag3
(g7
S'\x00\x00\x80?'
p46
tp47
Rp48
ag3
(g7
S'\x00\x00\x80?'
p49
tp50
Rp51
ag3
(g7
S'\x00\x00\x80?'
p52
tp53
Rp54
ag3
(g7
S'\x00\x00\x80?'
p55
tp56
Rp57
ag3
(g7
S'\x00\x00\x80?'
p58
tp59
Rp60
ag3
(g7
S'\x00\x00\x80?'
p61
tp62
Rp63
ag3
(g7
S'\x00\x00\x80?'
p64
tp65
Rp66
ag3
(g7
S'\x00\x00\x80?'
p67
tp68
Rp69
ag3
(g7
S'\x00\x00\x80?'
p70
tp71
Rp72
ag3
(g7
S'\x00\x00\x80?'
p73
tp74
Rp75
ag3
(g7
S'\x00\x00\x80?'
p76
tp77
Rp78
ag3
(g7
S'\x00\x00\x80?'
p79
tp80
Rp81
ag3
(g7
S'\x00\x00\x80?'
p82
tp83
Rp84
ag3
(g7
S'\x00\x00\x80?'
p85
tp86
Rp87
ag3
(g7
S'\x00\x00\x80?'
p88
tp89
Rp90
ag3
(g7
S'\x00\x00\x80?'
p91
tp92
Rp93
ag3
(g7
S'\x00\x00\x80?'
p94
tp95
Rp96
ag3
(g7
S'\x00\x00\x80?'
p97
tp98
Rp99
ag3
(g7
S'\x00\x00\x80?'
p100
tp101
Rp102
ag3
(g7
S'\x00\x00\x80?'
p103
tp104
Rp105
ag3
(g7
S'\x00\x00\x80?'
p106
tp107
Rp108
ag3
(g7
S'\x00\x00\x80?'
p109
tp110
Rp111
ag3
(g7
S'\x00\x00\x80?'
p112
tp113
Rp114
ag3
(g7
S'\x00\x00\x80?'
p115
tp116
Rp117
ag3
(g7
S'\x00\x00\x80?'
p118
tp119
Rp120
ag3
(g7
S'\x00\x00\x80?'
p121
tp122
Rp123
ag3
(g7
S'\x00\x00\x80?'
p124
tp125
Rp126
ag3
(g7
S'\x00\x00\x80?'
p127
tp128
Rp129
ag3
(g7
S'\x00\x00\x80?'
p130
tp131
Rp132
ag3
(g7
S'\x00\x00\x80?'
p133
tp134
Rp135
ag3
(g7
S'\x00\x00\x80?'
p136
tp137
Rp138
ag3
(g7
S'\x00\x00\x80?'
p139
tp140
Rp141
ag3
(g7
S'\x00\x00\x80?'
p142
tp143
Rp144
ag3
(g7
S'\x00\x00\x80?'
p145
tp146
Rp147
ag3
(g7
S'\x00\x00\x80?'
p148
tp149
Rp150
ag3
(g7
S'\x00\x00\x80?'
p151
tp152
Rp153
ag3
(g7
S'\x00\x00\x80?'
p154
tp155
Rp156
ag3
(g7
S'\x00\x00\x80?'
p157
tp158
Rp159
ag3
(g7
S'\x00\x00\x80?'
p160
tp161
Rp162
ag3
(g7
S'\x00\x00\x80?'
p163
tp164
Rp165
ag3
(g7
S'\x00\x00\x80?'
p166
tp167
Rp168
ag3
(g7
S'\x00\x00\x80?'
p169
tp170
Rp171
ag3
(g7
S'\x00\x00\x80?'
p172
tp173
Rp174
ag3
(g7
S'\x00\x00\x80?'
p175
tp176
Rp177
ag3
(g7
S'\x00\x00\x80?'
p178
tp179
Rp180
ag3
(g7
S'\x00\x00\x80?'
p181
tp182
Rp183
ag3
(g7
S'\x00\x00\x80?'
p184
tp185
Rp186
ag3
(g7
S'\x00\x00\x80?'
p187
tp188
Rp189
ag3
(g7
S'\x00\x00\x80?'
p190
tp191
Rp192
ag3
(g7
S'\x00\x00\x80?'
p193
tp194
Rp195
ag3
(g7
S'\x00\x00\x80?'
p196
tp197
Rp198
ag3
(g7
S'\x00\x00\x80?'
p199
tp200
Rp201
ag3
(g7
S'\x00\x00\x80?'
p202
tp203
Rp204
ag3
(g7
S'\x00\x00\x80?'
p205
tp206
Rp207
ag3
(g7
S'\x00\x00\x80?'
p208
tp209
Rp210
ag3
(g7
S'\x00\x00\x80?'
p211
tp212
Rp213
ag3
(g7
S'\x00\x00\x80?'
p214
tp215
Rp216
ag3
(g7
S'\x00\x00\x80?'
p217
tp218
Rp219
ag3
(g7
S'\x00\x00\x80?'
p220
tp221
Rp222
ag3
(g7
S'\x00\x00\x80?'
p223
tp224
Rp225
ag3
(g7
S'\x00\x00\x80?'
p226
tp227
Rp228
ag3
(g7
S'\x00\x00\x80?'
p229
tp230
Rp231
ag3
(g7
S'\x00\x00\x80?'
p232
tp233
Rp234
ag3
(g7
S'\x00\x00\x80?'
p235
tp236
Rp237
ag3
(g7
S'\x00\x00\x80?'
p238
tp239
Rp240
ag3
(g7
S'\x00\x00\x80?'
p241
tp242
Rp243
ag3
(g7
S'\x00\x00\x80?'
p244
tp245
Rp246
ag3
(g7
S'\x00\x00\x80?'
p247
tp248
Rp249
ag3
(g7
S'\x00\x00\x80?'
p250
tp251
Rp252
ag3
(g7
S'\x00\x00\x80?'
p253
tp254
Rp255
ag3
(g7
S'\x00\x00\x80?'
p256
tp257
Rp258
ag3
(g7
S'\x00\x00\x80?'
p259
tp260
Rp261
ag3
(g7
S'\x00\x00\x80?'
p262
tp263
Rp264
ag3
(g7
S'\x00\x00\x80?'
p265
tp266
Rp267
ag3
(g7
S'\x00\x00\x80?'
p268
tp269
Rp270
ag3
(g7
S'\x00\x00\x80?'
p271
tp272
Rp273
ag3
(g7
S'\x00\x00\x80?'
p274
tp275
Rp276
ag3
(g7
S'\x00\x00\x80?'
p277
tp278
Rp279
ag3
(g7
S'\x00\x00\x80?'
p280
tp281
Rp282
ag3
(g7
S'\x00\x00\x80?'
p283
tp284
Rp285
ag3
(g7
S'\x00\x00\x80?'
p286
tp287
Rp288
ag3
(g7
S'\x00\x00\x80?'
p289
tp290
Rp291
ag3
(g7
S'\x00\x00\x80?'
p292
tp293
Rp294
ag3
(g7
S'\x00\x00\x80?'
p295
tp296
Rp297
ag3
(g7
S'\x00\x00\x80?'
p298
tp299
Rp300
ag3
(g7
S'\x00\x00\x80?'
p301
tp302
Rp303
ag3
(g7
S'\x00\x00\x80?'
p304
tp305
Rp306
ag3
(g7
S'\x00\x00\x80?'
p307
tp308
Rp309
asS'test_acc'
p310
(lp311
g3
(g7
S'\xf3\x1aJ?'
p312
tp313
Rp314
ag3
(g7
S'\xbd\x86r?'
p315
tp316
Rp317
ag3
(g7
S'\xbd\x86r?'
p318
tp319
Rp320
ag3
(g7
S'\xbd\x86r?'
p321
tp322
Rp323
ag3
(g7
S'\xbd\x86r?'
p324
tp325
Rp326
ag3
(g7
S'\xbd\x86r?'
p327
tp328
Rp329
ag3
(g7
S'^Cy?'
p330
tp331
Rp332
ag3
(g7
S'^Cy?'
p333
tp334
Rp335
ag3
(g7
S'^Cy?'
p336
tp337
Rp338
ag3
(g7
S'^Cy?'
p339
tp340
Rp341
ag3
(g7
S'^Cy?'
p342
tp343
Rp344
ag3
(g7
S'^Cy?'
p345
tp346
Rp347
ag3
(g7
S'^Cy?'
p348
tp349
Rp350
ag3
(g7
S'^Cy?'
p351
tp352
Rp353
ag3
(g7
S'^Cy?'
p354
tp355
Rp356
ag3
(g7
S'^Cy?'
p357
tp358
Rp359
ag3
(g7
S'^Cy?'
p360
tp361
Rp362
ag3
(g7
S'^Cy?'
p363
tp364
Rp365
ag3
(g7
S'^Cy?'
p366
tp367
Rp368
ag3
(g7
S'^Cy?'
p369
tp370
Rp371
ag3
(g7
S'^Cy?'
p372
tp373
Rp374
ag3
(g7
S'^Cy?'
p375
tp376
Rp377
ag3
(g7
S'^Cy?'
p378
tp379
Rp380
ag3
(g7
S'^Cy?'
p381
tp382
Rp383
ag3
(g7
S'^Cy?'
p384
tp385
Rp386
ag3
(g7
S'^Cy?'
p387
tp388
Rp389
ag3
(g7
S'^Cy?'
p390
tp391
Rp392
ag3
(g7
S'^Cy?'
p393
tp394
Rp395
ag3
(g7
S'^Cy?'
p396
tp397
Rp398
ag3
(g7
S'^Cy?'
p399
tp400
Rp401
ag3
(g7
S'^Cy?'
p402
tp403
Rp404
ag3
(g7
S'^Cy?'
p405
tp406
Rp407
ag3
(g7
S'^Cy?'
p408
tp409
Rp410
ag3
(g7
S'^Cy?'
p411
tp412
Rp413
ag3
(g7
S'^Cy?'
p414
tp415
Rp416
ag3
(g7
S'^Cy?'
p417
tp418
Rp419
ag3
(g7
S'^Cy?'
p420
tp421
Rp422
ag3
(g7
S'^Cy?'
p423
tp424
Rp425
ag3
(g7
S'^Cy?'
p426
tp427
Rp428
ag3
(g7
S'^Cy?'
p429
tp430
Rp431
ag3
(g7
S'^Cy?'
p432
tp433
Rp434
ag3
(g7
S'^Cy?'
p435
tp436
Rp437
ag3
(g7
S'^Cy?'
p438
tp439
Rp440
ag3
(g7
S'^Cy?'
p441
tp442
Rp443
ag3
(g7
S'^Cy?'
p444
tp445
Rp446
ag3
(g7
S'^Cy?'
p447
tp448
Rp449
ag3
(g7
S'^Cy?'
p450
tp451
Rp452
ag3
(g7
S'^Cy?'
p453
tp454
Rp455
ag3
(g7
S'^Cy?'
p456
tp457
Rp458
ag3
(g7
S'^Cy?'
p459
tp460
Rp461
ag3
(g7
S'^Cy?'
p462
tp463
Rp464
ag3
(g7
S'^Cy?'
p465
tp466
Rp467
ag3
(g7
S'^Cy?'
p468
tp469
Rp470
ag3
(g7
S'^Cy?'
p471
tp472
Rp473
ag3
(g7
S'^Cy?'
p474
tp475
Rp476
ag3
(g7
S'^Cy?'
p477
tp478
Rp479
ag3
(g7
S'^Cy?'
p480
tp481
Rp482
ag3
(g7
S'^Cy?'
p483
tp484
Rp485
ag3
(g7
S'^Cy?'
p486
tp487
Rp488
ag3
(g7
S'^Cy?'
p489
tp490
Rp491
ag3
(g7
S'^Cy?'
p492
tp493
Rp494
ag3
(g7
S'^Cy?'
p495
tp496
Rp497
ag3
(g7
S'^Cy?'
p498
tp499
Rp500
ag3
(g7
S'^Cy?'
p501
tp502
Rp503
ag3
(g7
S'^Cy?'
p504
tp505
Rp506
ag3
(g7
S'^Cy?'
p507
tp508
Rp509
ag3
(g7
S'\xbd\x86r?'
p510
tp511
Rp512
ag3
(g7
S'\xbd\x86r?'
p513
tp514
Rp515
ag3
(g7
S'^Cy?'
p516
tp517
Rp518
ag3
(g7
S'^Cy?'
p519
tp520
Rp521
ag3
(g7
S'^Cy?'
p522
tp523
Rp524
ag3
(g7
S'^Cy?'
p525
tp526
Rp527
ag3
(g7
S'^Cy?'
p528
tp529
Rp530
ag3
(g7
S'^Cy?'
p531
tp532
Rp533
ag3
(g7
S'^Cy?'
p534
tp535
Rp536
ag3
(g7
S'^Cy?'
p537
tp538
Rp539
ag3
(g7
S'^Cy?'
p540
tp541
Rp542
ag3
(g7
S'^Cy?'
p543
tp544
Rp545
ag3
(g7
S'^Cy?'
p546
tp547
Rp548
ag3
(g7
S'^Cy?'
p549
tp550
Rp551
ag3
(g7
S'^Cy?'
p552
tp553
Rp554
ag3
(g7
S'^Cy?'
p555
tp556
Rp557
ag3
(g7
S'^Cy?'
p558
tp559
Rp560
ag3
(g7
S'\xbd\x86r?'
p561
tp562
Rp563
ag3
(g7
S'\xbd\x86r?'
p564
tp565
Rp566
ag3
(g7
S'^Cy?'
p567
tp568
Rp569
ag3
(g7
S'^Cy?'
p570
tp571
Rp572
ag3
(g7
S'^Cy?'
p573
tp574
Rp575
ag3
(g7
S'^Cy?'
p576
tp577
Rp578
ag3
(g7
S'^Cy?'
p579
tp580
Rp581
ag3
(g7
S'^Cy?'
p582
tp583
Rp584
ag3
(g7
S'^Cy?'
p585
tp586
Rp587
ag3
(g7
S'^Cy?'
p588
tp589
Rp590
ag3
(g7
S'^Cy?'
p591
tp592
Rp593
ag3
(g7
S'^Cy?'
p594
tp595
Rp596
ag3
(g7
S'^Cy?'
p597
tp598
Rp599
ag3
(g7
S'^Cy?'
p600
tp601
Rp602
ag3
(g7
S'^Cy?'
p603
tp604
Rp605
ag3
(g7
S'^Cy?'
p606
tp607
Rp608
ag3
(g7
S'^Cy?'
p609
tp610
Rp611
asS'test_loss'
p612
(lp613
g3
(g7
S'\x88Jw?'
p614
tp615
Rp616
ag3
(g7
S'\xfa\x8dA?'
p617
tp618
Rp619
ag3
(g7
S'\xad\xdc$?'
p620
tp621
Rp622
ag3
(g7
S'u\xcc\x11?'
p623
tp624
Rp625
ag3
(g7
S'\xf8&\x05?'
p626
tp627
Rp628
ag3
(g7
S'\xec\\\xf9>'
p629
tp630
Rp631
ag3
(g7
S'\x9c\x88\xf0>'
p632
tp633
Rp634
ag3
(g7
S'\x0f[\xeb>'
p635
tp636
Rp637
ag3
(g7
S'.C\xe5>'
p638
tp639
Rp640
ag3
(g7
S'\xef\xb2\xe1>'
p641
tp642
Rp643
ag3
(g7
S'\xbeP\xdc>'
p644
tp645
Rp646
ag3
(g7
S'\x12\xa8\xda>'
p647
tp648
Rp649
ag3
(g7
S'\xf7\xb8\xd8>'
p650
tp651
Rp652
ag3
(g7
S'`\xd2\xd6>'
p653
tp654
Rp655
ag3
(g7
S'\x00s\xd5>'
p656
tp657
Rp658
ag3
(g7
S'\xc0\x91\xd4>'
p659
tp660
Rp661
ag3
(g7
S'\x0f\xf9\xd4>'
p662
tp663
Rp664
ag3
(g7
S'\xda\xe1\xd4>'
p665
tp666
Rp667
ag3
(g7
S'\xe8\x7f\xd4>'
p668
tp669
Rp670
ag3
(g7
S'x\xb0\xd4>'
p671
tp672
Rp673
ag3
(g7
S'0-\xd5>'
p674
tp675
Rp676
ag3
(g7
S'z\x8d\xd5>'
p677
tp678
Rp679
ag3
(g7
S'N\x8c\xd4>'
p680
tp681
Rp682
ag3
(g7
S'\xa2\x10\xd3>'
p683
tp684
Rp685
ag3
(g7
S'I|\xd1>'
p686
tp687
Rp688
ag3
(g7
S'\x96\xd9\xcf>'
p689
tp690
Rp691
ag3
(g7
S'\xbe5\xce>'
p692
tp693
Rp694
ag3
(g7
S'\x8b\xa2\xcc>'
p695
tp696
Rp697
ag3
(g7
S'q5\xcb>'
p698
tp699
Rp700
ag3
(g7
S'%}\xca>'
p701
tp702
Rp703
ag3
(g7
S'8\xef\xc7>'
p704
tp705
Rp706
ag3
(g7
S'\x0e\x89\xc1>'
p707
tp708
Rp709
ag3
(g7
S'z\x13\xbf>'
p710
tp711
Rp712
ag3
(g7
S'`\xce\xbc>'
p713
tp714
Rp715
ag3
(g7
S'6h\xb7>'
p716
tp717
Rp718
ag3
(g7
S'1\x11\xb1>'
p719
tp720
Rp721
ag3
(g7
S'\n\xaf\xad>'
p722
tp723
Rp724
ag3
(g7
S'\xdaz\xb7>'
p725
tp726
Rp727
ag3
(g7
S'\xd7\x00\xb8>'
p728
tp729
Rp730
ag3
(g7
S'\xde7\xad>'
p731
tp732
Rp733
ag3
(g7
S'\xc9\xd8\xb3>'
p734
tp735
Rp736
ag3
(g7
S'\xe5\xd9\xc0>'
p737
tp738
Rp739
ag3
(g7
S'fx\xc5>'
p740
tp741
Rp742
ag3
(g7
S'\x10\x98\xc6>'
p743
tp744
Rp745
ag3
(g7
S'\xd4w\xc6>'
p746
tp747
Rp748
ag3
(g7
S'\xfa=\xc5>'
p749
tp750
Rp751
ag3
(g7
S"\xe8'\xc3>"
p752
tp753
Rp754
ag3
(g7
S'"\xc4\xc0>'
p755
tp756
Rp757
ag3
(g7
S'\x82\x19\xbf>'
p758
tp759
Rp760
ag3
(g7
S'\xc4\xe1\xbe>'
p761
tp762
Rp763
ag3
(g7
S'j\xc9\xbf>'
p764
tp765
Rp766
ag3
(g7
S'\xc0\xbd\xc0>'
p767
tp768
Rp769
ag3
(g7
S'\x02\x8b\xc0>'
p770
tp771
Rp772
ag3
(g7
S'\x1fo\xbe>'
p773
tp774
Rp775
ag3
(g7
S'i\x08\xba>'
p776
tp777
Rp778
ag3
(g7
S'\x15\r\xb5>'
p779
tp780
Rp781
ag3
(g7
S'\xec\xf2\xb3>'
p782
tp783
Rp784
ag3
(g7
S'\xa1\xd7\xb4>'
p785
tp786
Rp787
ag3
(g7
S'fr\xb3>'
p788
tp789
Rp790
ag3
(g7
S'\xa4\x86\xb3>'
p791
tp792
Rp793
ag3
(g7
S'\xd9\xc8\xb5>'
p794
tp795
Rp796
ag3
(g7
S'\xe3\x87\xb4>'
p797
tp798
Rp799
ag3
(g7
S'\x12\xd2\xb7>'
p800
tp801
Rp802
ag3
(g7
S'\xe3\xb9\xaf>'
p803
tp804
Rp805
ag3
(g7
S'\x99\x03\xb3>'
p806
tp807
Rp808
ag3
(g7
S'\x93\x84\xc4>'
p809
tp810
Rp811
ag3
(g7
S'\x92\xc7\xc2>'
p812
tp813
Rp814
ag3
(g7
S'\x8a4\xb9>'
p815
tp816
Rp817
ag3
(g7
S'\x0fK\xb2>'
p818
tp819
Rp820
ag3
(g7
S'\xf6\x8e\xae>'
p821
tp822
Rp823
ag3
(g7
S'Y\x9d\xac>'
p824
tp825
Rp826
ag3
(g7
S'\xb3\xde\xac>'
p827
tp828
Rp829
ag3
(g7
S'G\xdd\xaf>'
p830
tp831
Rp832
ag3
(g7
S'\x94\x08\xb3>'
p833
tp834
Rp835
ag3
(g7
S'\xe5\xa0\xb4>'
p836
tp837
Rp838
ag3
(g7
S'\xde_\xb5>'
p839
tp840
Rp841
ag3
(g7
S'\xb2\xbe\xb5>'
p842
tp843
Rp844
ag3
(g7
S'}\xf8\xb5>'
p845
tp846
Rp847
ag3
(g7
S'|k\xb6>'
p848
tp849
Rp850
ag3
(g7
S'X\xac\xb6>'
p851
tp852
Rp853
ag3
(g7
S'\xe3x\xb6>'
p854
tp855
Rp856
ag3
(g7
S'\xcb\\\xb4>'
p857
tp858
Rp859
ag3
(g7
S'D\xd5\xb4>'
p860
tp861
Rp862
ag3
(g7
S's\xa4\xb9>'
p863
tp864
Rp865
ag3
(g7
S'\n\t\xcd>'
p866
tp867
Rp868
ag3
(g7
S'\xe5\xbc\xc7>'
p869
tp870
Rp871
ag3
(g7
S'2?\xc5>'
p872
tp873
Rp874
ag3
(g7
S'i\xed\xc4>'
p875
tp876
Rp877
ag3
(g7
S'b\xf6\xc4>'
p878
tp879
Rp880
ag3
(g7
S'S\xa4\xc4>'
p881
tp882
Rp883
ag3
(g7
S'\x84l\xc4>'
p884
tp885
Rp886
ag3
(g7
S'\xa1\xaf\xc3>'
p887
tp888
Rp889
ag3
(g7
S'\xda\x87\xc1>'
p890
tp891
Rp892
ag3
(g7
S'\xe3,\xc0>'
p893
tp894
Rp895
ag3
(g7
S'\xca\x8d\xbe>'
p896
tp897
Rp898
ag3
(g7
S'l\xee\xbc>'
p899
tp900
Rp901
ag3
(g7
S'\xd5\xa3\xbb>'
p902
tp903
Rp904
ag3
(g7
S'\x18\x1c\xba>'
p905
tp906
Rp907
ag3
(g7
S'\x1c\xd4\xb8>'
p908
tp909
Rp910
ag3
(g7
S'\xb8\xaa\xb7>'
p911
tp912
Rp913
asS'train_loss'
p914
(lp915
g3
(g7
S'q\x06\x95?'
p916
tp917
Rp918
ag3
(g7
S'\x0byQ?'
p919
tp920
Rp921
ag3
(g7
S'Uk"?'
p922
tp923
Rp924
ag3
(g7
S'}\x01\x04?'
p925
tp926
Rp927
ag3
(g7
S'$A\xde>'
p928
tp929
Rp930
ag3
(g7
S'\xbel\xc7>'
p931
tp932
Rp933
ag3
(g7
S'A\xc5\xbb>'
p934
tp935
Rp936
ag3
(g7
S'\x07\xfc\xb5>'
p937
tp938
Rp939
ag3
(g7
S'-P\xb2>'
p940
tp941
Rp942
ag3
(g7
S'\xb8\xbf\xaf>'
p943
tp944
Rp945
ag3
(g7
S'\x99\x84\xad>'
p946
tp947
Rp948
ag3
(g7
S'j\x02\xac>'
p949
tp950
Rp951
ag3
(g7
S'\xac8\xaa>'
p952
tp953
Rp954
ag3
(g7
S'\xe8\xd4\xa8>'
p955
tp956
Rp957
ag3
(g7
S'\r\x03\xa7>'
p958
tp959
Rp960
ag3
(g7
S'Ev\xa4>'
p961
tp962
Rp963
ag3
(g7
S'\x0f\x10\xa2>'
p964
tp965
Rp966
ag3
(g7
S'S\x0c\xa1>'
p967
tp968
Rp969
ag3
(g7
S'r\x0f\xa0>'
p970
tp971
Rp972
ag3
(g7
S'\x92\x18\x9f>'
p973
tp974
Rp975
ag3
(g7
S"('\x9e>"
p976
tp977
Rp978
ag3
(g7
S'H<\x9d>'
p979
tp980
Rp981
ag3
(g7
S'\xd2Z\x9c>'
p982
tp983
Rp984
ag3
(g7
S')\x7f\x9b>'
p985
tp986
Rp987
ag3
(g7
S'\x8c\xa0\x9a>'
p988
tp989
Rp990
ag3
(g7
S'_\xc4\x99>'
p991
tp992
Rp993
ag3
(g7
S'2\xec\x98>'
p994
tp995
Rp996
ag3
(g7
S'\xd2\x17\x98>'
p997
tp998
Rp999
ag3
(g7
S'\xcfF\x97>'
p1000
tp1001
Rp1002
ag3
(g7
S'<x\x96>'
p1003
tp1004
Rp1005
ag3
(g7
S'\x9c\x7f\x95>'
p1006
tp1007
Rp1008
ag3
(g7
S'\xd2\xa5\x94>'
p1009
tp1010
Rp1011
ag3
(g7
S'Z\xdd\x93>'
p1012
tp1013
Rp1014
ag3
(g7
S']\x1a\x93>'
p1015
tp1016
Rp1017
ag3
(g7
S'\xbbZ\x92>'
p1018
tp1019
Rp1020
ag3
(g7
S'9\x9e\x91>'
p1021
tp1022
Rp1023
ag3
(g7
S'm\xe5\x90>'
p1024
tp1025
Rp1026
ag3
(g7
S'K,\x90>'
p1027
tp1028
Rp1029
ag3
(g7
S'Ww\x8f>'
p1030
tp1031
Rp1032
ag3
(g7
S'\x93\xc8\x8e>'
p1033
tp1034
Rp1035
ag3
(g7
S'@\x17\x8e>'
p1036
tp1037
Rp1038
ag3
(g7
S'%g\x8d>'
p1039
tp1040
Rp1041
ag3
(g7
S'\x1e\xb9\x8c>'
p1042
tp1043
Rp1044
ag3
(g7
S'=\r\x8c>'
p1045
tp1046
Rp1047
ag3
(g7
S'\xb1c\x8b>'
p1048
tp1049
Rp1050
ag3
(g7
S'\xcf\xbb\x8a>'
p1051
tp1052
Rp1053
ag3
(g7
S'\xe0\x15\x8a>'
p1054
tp1055
Rp1056
ag3
(g7
S'\xd3q\x89>'
p1057
tp1058
Rp1059
ag3
(g7
S'\xbd\xce\x88>'
p1060
tp1061
Rp1062
ag3
(g7
S'\xe0,\x88>'
p1063
tp1064
Rp1065
ag3
(g7
S'-\x8c\x87>'
p1066
tp1067
Rp1068
ag3
(g7
S'\xfe\xec\x86>'
p1069
tp1070
Rp1071
ag3
(g7
S'zO\x86>'
p1072
tp1073
Rp1074
ag3
(g7
S'\xd0\xb4\x85>'
p1075
tp1076
Rp1077
ag3
(g7
S'\x13\x1e\x85>'
p1078
tp1079
Rp1080
ag3
(g7
S'\xda\x87\x84>'
p1081
tp1082
Rp1083
ag3
(g7
S'f\xf3\x83>'
p1084
tp1085
Rp1086
ag3
(g7
S'\x1aa\x83>'
p1087
tp1088
Rp1089
ag3
(g7
S'\x03\xd6\x82>'
p1090
tp1091
Rp1092
ag3
(g7
S'\x0cG\x82>'
p1093
tp1094
Rp1095
ag3
(g7
S'\x18\xbd\x81>'
p1096
tp1097
Rp1098
ag3
(g7
S'f5\x81>'
p1099
tp1100
Rp1101
ag3
(g7
S'\x11\xac\x80>'
p1102
tp1103
Rp1104
ag3
(g7
S'\xeb8\x80>'
p1105
tp1106
Rp1107
ag3
(g7
S'\xb9g\x7f>'
p1108
tp1109
Rp1110
ag3
(g7
S'\xcd+~>'
p1111
tp1112
Rp1113
ag3
(g7
S'\xd7\x04}>'
p1114
tp1115
Rp1116
ag3
(g7
S'\x1d\xe9{>'
p1117
tp1118
Rp1119
ag3
(g7
S'\x08\xd7z>'
p1120
tp1121
Rp1122
ag3
(g7
S'\x18\xcby>'
p1123
tp1124
Rp1125
ag3
(g7
S'i\xc1x>'
p1126
tp1127
Rp1128
ag3
(g7
S'6\xbaw>'
p1129
tp1130
Rp1131
ag3
(g7
S'\xa2\xb5v>'
p1132
tp1133
Rp1134
ag3
(g7
S'\xa1\xb3u>'
p1135
tp1136
Rp1137
ag3
(g7
S'L\xb4t>'
p1138
tp1139
Rp1140
ag3
(g7
S'\x08\xb7s>'
p1141
tp1142
Rp1143
ag3
(g7
S'\xae\xbbr>'
p1144
tp1145
Rp1146
ag3
(g7
S':\xc3q>'
p1147
tp1148
Rp1149
ag3
(g7
S'V\xcdp>'
p1150
tp1151
Rp1152
ag3
(g7
S'/\xd9o>'
p1153
tp1154
Rp1155
ag3
(g7
S'\\\xe7n>'
p1156
tp1157
Rp1158
ag3
(g7
S'\xe0\xebm>'
p1159
tp1160
Rp1161
ag3
(g7
S'eOm>'
p1162
tp1163
Rp1164
ag3
(g7
S'X5l>'
p1165
tp1166
Rp1167
ag3
(g7
S'[\xc0k>'
p1168
tp1169
Rp1170
ag3
(g7
S'"\xddj>'
p1171
tp1172
Rp1173
ag3
(g7
S'\x19\xeei>'
p1174
tp1175
Rp1176
ag3
(g7
S']\x02i>'
p1177
tp1178
Rp1179
ag3
(g7
S'\x0e\x1ch>'
p1180
tp1181
Rp1182
ag3
(g7
S'\xb8=g>'
p1183
tp1184
Rp1185
ag3
(g7
S'hgf>'
p1186
tp1187
Rp1188
ag3
(g7
S'\xf8\x9ae>'
p1189
tp1190
Rp1191
ag3
(g7
S'A\xdbd>'
p1192
tp1193
Rp1194
ag3
(g7
S"\x9a'd>"
p1195
tp1196
Rp1197
ag3
(g7
S'\xf6}c>'
p1198
tp1199
Rp1200
ag3
(g7
S'\xea\xd9b>'
p1201
tp1202
Rp1203
ag3
(g7
S'z:b>'
p1204
tp1205
Rp1206
ag3
(g7
S'\xae\x9aa>'
p1207
tp1208
Rp1209
ag3
(g7
S'S\xe8`>'
p1210
tp1211
Rp1212
ag3
(g7
S'\xb7\xfa_>'
p1213
tp1214
Rp1215
as.