cnumpy.core.multiarray
_reconstruct
p0
(cnumpy
ndarray
p1
(I0
tp2
S'b'
p3
tp4
Rp5
(I1
(I3
I3
tp6
cnumpy
dtype
p7
(S'f4'
p8
I0
I1
tp9
Rp10
(I3
S'<'
p11
NNNI-1
I-1
I0
tp12
bI00
S"\x01'\x06<P3e?\xa5\xa0\xc5=\xc2\xf4\x14>2\x10+?v\xca>>\xd4e:=<\xfc\x08?\xcf\xba\xd6>"
p13
tp14
b.