cnumpy.core.multiarray
_reconstruct
p0
(cnumpy
ndarray
p1
(I0
tp2
S'b'
p3
tp4
Rp5
(I1
(I3
I3
tp6
cnumpy
dtype
p7
(S'f4'
p8
I0
I1
tp9
Rp10
(I3
S'<'
p11
NNNI-1
I-1
I0
tp12
bI00
S'I\n\x90=:u\x9f>\x19D\x1e?`_=?\xc5\xad\x9a=\x9c+=>\xaa\xb3\x8c=R\xd2\xbf=?oV?'
p13
tp14
b.