cnumpy.core.multiarray
_reconstruct
p0
(cnumpy
ndarray
p1
(I0
tp2
S'b'
p3
tp4
Rp5
(I1
(I3
I3
tp6
cnumpy
dtype
p7
(S'f4'
p8
I0
I1
tp9
Rp10
(I3
S'<'
p11
NNNI-1
I-1
I0
tp12
bI00
S'1\xbf\xf9<\xf47h?%\xa1\x7f=\xcej\xb7=\xe4J\x14?\x85\x8f\xa9>N\xbaq=60\x1f?Kh\xa3>'
p13
tp14
b.