cnumpy.core.multiarray
_reconstruct
p0
(cnumpy
ndarray
p1
(I0
tp2
S'b'
p3
tp4
Rp5
(I1
(I3
I3
tp6
cnumpy
dtype
p7
(S'f4'
p8
I0
I1
tp9
Rp10
(I3
S'<'
p11
NNNI-1
I-1
I0
tp12
bI00
S'^\xc0\xf5=\xb3\x97V=x\xdeS?\xc0\x1c\t?\xbdM\xd8>+\xc6+=s\xef\xb5>\x05\x8b!?\x1aP_<'
p13
tp14
b.